#include <math.h>
#include <stdio.h>
#include <stdlib.h>
#include <string.h>
#define LEN 100
#define ASCII 100
#define MAX_N 100
#define MAX_N 100
#define L 100
#define MAX 100
#define ASC 100
#define null 0
#define Len 100
#define M 100
#define SUM 100
#define NUMBER 100
#define SIZE 100
#define N 100
#define Max 100
#define X 100
#define Y 100
#define A 100
#define MAXN 100
#define MAXSIZE 100

void main()
{
	int *a,*b,*p,i,j,n,k=0;
	a=LEN;
	b=LEN;
	scanf("%d",&n);
	for(i=0;i<n;i++)
		scanf("%d",a+i);
	p=b;
	for(i=0;i<n;i++)
	{
		for(j=0;j<i;j++)
		{
			if(*(a+i)==*(a+j)) break;
		}
		if(j==i)
		{
			*p++=*(a+i);
			k++;
		}
		else continue;
	}
	p=b;
	for(i=0;i<k-1;i++)
		printf("%d,",*p++);
	printf("%d",*p);
}



